; Function Attrs: mustprogress uwtable
define internal noundef nonnull ptr @_ZN7testing8internal24ParameterizedTestFactoryIN4absl12_GLOBAL__N_138CordzUpdateTest_AssignSampledCord_TestEE10CreateTestEv(ptr noundef nonnull align 8 dereferenceable(12) %0) unnamed_addr #3 align 2 personality ptr @__gxx_personality_v0 {
  %2 = getelementptr inbounds nuw i8, ptr %0, i64 8
  store ptr %2, ptr @_ZN7testing18WithParamInterfaceIN4absl12TestCordSizeEE10parameter_E, align 8, !tbaa !73
  %3 = tail call noalias noundef nonnull dereferenceable(48) ptr @_Znwm(i64 noundef 48) #35
  invoke void @_ZN7testing4TestC2Ev(ptr noundef nonnull align 8 dereferenceable(48) %3)
          to label %.noexc unwind label %21

.noexc:                                           ; preds = %1
  %4 = getelementptr inbounds nuw i8, ptr %3, i64 16
  store ptr getelementptr inbounds nuw inrange(-16, 48) (i8, ptr @_ZTVN4absl12_GLOBAL__N_115CordzUpdateTestE, i64 16), ptr %3, align 8, !tbaa !18
  store ptr getelementptr inbounds nuw inrange(-16, 16) (i8, ptr @_ZTVN4absl12_GLOBAL__N_115CordzUpdateTestE, i64 80), ptr %4, align 8, !tbaa !18
  %5 = getelementptr inbounds nuw i8, ptr %3, i64 24
  %6 = invoke noundef i32 @_ZN4absl13cord_internal23get_cordz_mean_intervalEv()
          to label %.noexc.i.i unwind label %15

.noexc.i.i:                                       ; preds = %.noexc
  store i32 %6, ptr %5, align 4, !tbaa !100
  invoke void @_ZN4absl13cord_internal23set_cordz_mean_intervalEi(i32 noundef 1)
          to label %.noexc4.i.i unwind label %15

.noexc4.i.i:                                      ; preds = %.noexc.i.i
  invoke void @_ZN4absl13cord_internal33cordz_set_next_sample_for_testingEl(i64 noundef 1)
          to label %_ZN4absl27CordzSamplingIntervalHelperC2Ei.exit.i.i unwind label %15

_ZN4absl27CordzSamplingIntervalHelperC2Ei.exit.i.i: ; preds = %.noexc4.i.i
  %7 = getelementptr inbounds nuw i8, ptr %3, i64 32
  %8 = invoke noundef nonnull align 4 dereferenceable(4) ptr @_ZN7testing18WithParamInterfaceIN4absl12TestCordSizeEE8GetParamEv()
          to label %9 unwind label %17

9:                                                ; preds = %_ZN4absl27CordzSamplingIntervalHelperC2Ei.exit.i.i
  %10 = load i32, ptr %8, align 4, !tbaa !35
  %11 = invoke fastcc { i64, ptr } @_ZN4absl12_GLOBAL__N_110MakeStringENS_12TestCordSizeE(i32 noundef %10)
          to label %12 unwind label %17

12:                                               ; preds = %9
  %13 = extractvalue { i64, ptr } %11, 0
  %14 = extractvalue { i64, ptr } %11, 1
  invoke void @_ZN4absl4CordC2ESt17basic_string_viewIcSt11char_traitsIcEENS_13cord_internal18CordzUpdateTracker16MethodIdentifierE(ptr noundef nonnull align 8 dereferenceable(16) %7, i64 %13, ptr %14, i32 noundef 9)
          to label %20 unwind label %17

15:                                               ; preds = %.noexc4.i.i, %.noexc.i.i, %.noexc
  %16 = landingpad { ptr, i32 }
          cleanup
  br label %19

17:                                               ; preds = %12, %9, %_ZN4absl27CordzSamplingIntervalHelperC2Ei.exit.i.i
  %18 = landingpad { ptr, i32 }
          cleanup
  tail call void @_ZN4absl27CordzSamplingIntervalHelperD2Ev(ptr noundef nonnull align 4 dereferenceable(4) %5) #17
  br label %19

19:                                               ; preds = %17, %15
  %.pn.i.i = phi { ptr, i32 } [ %18, %17 ], [ %16, %15 ]
  tail call void @_ZN7testing4TestD2Ev(ptr noundef nonnull align 8 dereferenceable(48) %3) #17
  br label %.body

20:                                               ; preds = %12
  store ptr getelementptr inbounds nuw inrange(-16, 48) (i8, ptr @_ZTVN4absl12_GLOBAL__N_138CordzUpdateTest_AssignSampledCord_TestE, i64 16), ptr %3, align 8, !tbaa !18
  store ptr getelementptr inbounds nuw inrange(-16, 16) (i8, ptr @_ZTVN4absl12_GLOBAL__N_138CordzUpdateTest_AssignSampledCord_TestE, i64 80), ptr %4, align 8, !tbaa !18
  ret ptr %3

21:                                               ; preds = %1
  %22 = landingpad { ptr, i32 }
          cleanup
  br label %.body

.body:                                            ; preds = %19, %21
  %eh.lpad-body = phi { ptr, i32 } [ %22, %21 ], [ %.pn.i.i, %19 ]
  tail call void @_ZdlPvm(ptr noundef nonnull %3, i64 noundef 48) #36
  resume { ptr, i32 } %eh.lpad-body
}